; Function Attrs: mustprogress uwtable
define dso_local void @_ZN4Luau14AnyTypeSummary5visitEPKNS_5ScopeEPNS_13AstStatRepeatEPKNS_6ModuleENS_7NotNullINS_12BuiltinTypesEEE(ptr noundef nonnull align 8 dereferenceable(288) %0, ptr noundef readnone captures(none) %1, ptr noundef readonly captures(none) %2, ptr noundef nonnull %3, ptr %4) local_unnamed_addr #6 align 2 personality ptr @__gxx_personality_v0 {
  %6 = getelementptr inbounds nuw i8, ptr %2, i64 12
  %.sroa.01.0.copyload = load i64, ptr %6, align 4
  %.sroa.2.0..sroa_idx = getelementptr inbounds nuw i8, ptr %2, i64 20
  %.sroa.2.0.copyload = load i64, ptr %.sroa.2.0..sroa_idx, align 4
  %7 = tail call noundef ptr @_ZN4Luau14AnyTypeSummary18findInnerMostScopeENS_8LocationEPKNS_6ModuleE(ptr nonnull align 8 poison, i64 %.sroa.01.0.copyload, i64 %.sroa.2.0.copyload, ptr noundef %3)
  %8 = getelementptr inbounds nuw i8, ptr %2, i64 40
  %9 = load ptr, ptr %8, align 8, !tbaa !48
  %10 = getelementptr inbounds nuw i8, ptr %0, i64 136
  %11 = load i32, ptr %10, align 8, !tbaa !4
  %12 = add nsw i32 %11, 1
  store i32 %12, ptr %10, align 8, !tbaa !4
  %13 = load i32, ptr @_ZN4FInt28LuauAnySummaryRecursionLimitE, align 8, !tbaa !19
  %.not.i = icmp slt i32 %12, %13
  br i1 %.not.i, label %14, label %_ZN4Luau14AnyTypeSummary5visitEPKNS_5ScopeEPNS_12AstStatBlockEPKNS_6ModuleENS_7NotNullINS_12BuiltinTypesEEE.exit

14:                                               ; preds = %5
  %15 = getelementptr inbounds nuw i8, ptr %9, i64 32
  %16 = load ptr, ptr %15, align 8, !tbaa !28
  %17 = getelementptr inbounds nuw i8, ptr %9, i64 40
  %18 = load i64, ptr %17, align 8, !tbaa !33
  %19 = getelementptr inbounds nuw ptr, ptr %16, i64 %18
  %.not1315.i = icmp eq i64 %18, 0
  br i1 %.not1315.i, label %_ZN4Luau14AnyTypeSummary5visitEPKNS_5ScopeEPNS_12AstStatBlockEPKNS_6ModuleENS_7NotNullINS_12BuiltinTypesEEE.exit, label %.lr.ph.i

.lr.ph.i:                                         ; preds = %14, %21
  %.016.i = phi ptr [ %22, %21 ], [ %16, %14 ]
  %20 = load ptr, ptr %.016.i, align 8, !tbaa !34
  invoke void @_ZN4Luau14AnyTypeSummary5visitEPKNS_5ScopeEPNS_7AstStatEPKNS_6ModuleENS_7NotNullINS_12BuiltinTypesEEE(ptr noundef nonnull align 8 dereferenceable(288) %0, ptr noundef readnone %7, ptr noundef %20, ptr noundef nonnull %3, ptr %4)
          to label %21 unwind label %23

21:                                               ; preds = %.lr.ph.i
  %22 = getelementptr inbounds nuw i8, ptr %.016.i, i64 8
  %.not13.i = icmp eq ptr %22, %19
  br i1 %.not13.i, label %.loopexit.loopexit.i, label %.lr.ph.i

23:                                               ; preds = %.lr.ph.i
  %24 = landingpad { ptr, i32 }
          cleanup
  %25 = load i32, ptr %10, align 8, !tbaa !4
  %26 = add nsw i32 %25, -1
  store i32 %26, ptr %10, align 8, !tbaa !4
  resume { ptr, i32 } %24

.loopexit.loopexit.i:                             ; preds = %21
  %.pre.i = load i32, ptr %10, align 8, !tbaa !4
  %27 = add nsw i32 %.pre.i, -1
  br label %_ZN4Luau14AnyTypeSummary5visitEPKNS_5ScopeEPNS_12AstStatBlockEPKNS_6ModuleENS_7NotNullINS_12BuiltinTypesEEE.exit

_ZN4Luau14AnyTypeSummary5visitEPKNS_5ScopeEPNS_12AstStatBlockEPKNS_6ModuleENS_7NotNullINS_12BuiltinTypesEEE.exit: ; preds = %5, %14, %.loopexit.loopexit.i
  %28 = phi i32 [ %27, %.loopexit.loopexit.i ], [ %11, %14 ], [ %11, %5 ]
  store i32 %28, ptr %10, align 8, !tbaa !4
  ret void
}